target datalayout = "e-m:e-p270:32:32-p271:32:32-p272:64:64-i64:64-i128:128-f80:128-n8:16:32:64-S128"
target triple = "x86_64-pc-linux-gnu"

%struct.OnigEncodingTypeST = type { ptr, ptr, i32, i32, ptr, ptr, ptr, ptr, ptr, ptr, ptr, ptr, ptr, ptr, ptr, ptr, ptr, i32, i32 }
%struct.ScanEnv = type { i32, i32, ptr, ptr, i32, i32, i32, i32, ptr, ptr, ptr, ptr, ptr, ptr, i32, i32, i32, i32, [8 x ptr], ptr, i32, i32, ptr, i32 }

@OnigEncodingASCII = external constant %struct.OnigEncodingTypeST, align 8

; Function Attrs: nounwind sspstrong uwtable
define dso_local void @onig_scan_env_set_error_string(ptr noundef %0, i32 noundef %1, ptr noundef %2, ptr noundef %3) #0 {
  %5 = alloca ptr, align 8
  %6 = alloca i32, align 4
  %7 = alloca ptr, align 8
  %8 = alloca ptr, align 8
  store ptr %0, ptr %5, align 8, !tbaa !12
  store i32 %1, ptr %6, align 4, !tbaa !13
  store ptr %2, ptr %7, align 8, !tbaa !7
  store ptr %3, ptr %8, align 8, !tbaa !7
  %9 = load ptr, ptr %7, align 8, !tbaa !7
  %10 = load ptr, ptr %5, align 8, !tbaa !12
  %11 = getelementptr inbounds nuw %struct.ScanEnv, ptr %10, i32 0, i32 10
  store ptr %9, ptr %11, align 8, !tbaa !109
  %12 = load ptr, ptr %8, align 8, !tbaa !7
  %13 = load ptr, ptr %5, align 8, !tbaa !12
  %14 = getelementptr inbounds nuw %struct.ScanEnv, ptr %13, i32 0, i32 11
  store ptr %12, ptr %14, align 8, !tbaa !110
  ret void
}

; Function Attrs: nounwind sspstrong uwtable
define internal i32 @propname2ctype(ptr noundef %0, ptr noundef %1) #0 {
  %3 = alloca ptr, align 8
  %4 = alloca ptr, align 8
  %5 = alloca ptr, align 8
  %6 = alloca ptr, align 8
  %7 = alloca i32, align 4
  store ptr %0, ptr %3, align 8, !tbaa !12
  store ptr %1, ptr %4, align 8, !tbaa !7
  call void @llvm.lifetime.start.p0(i64 8, ptr %5) #13
  %8 = load ptr, ptr %4, align 8, !tbaa !7
  store ptr %8, ptr %5, align 8, !tbaa !7
  call void @llvm.lifetime.start.p0(i64 8, ptr %6) #13
  %9 = load ptr, ptr %5, align 8, !tbaa !7
  %10 = load ptr, ptr %4, align 8, !tbaa !7
  %11 = call i64 @strlen(ptr noundef %10) #18
  %12 = getelementptr i8, ptr %9, i64 %11
  store ptr %12, ptr %6, align 8, !tbaa !7
  call void @llvm.lifetime.start.p0(i64 4, ptr %7) #13
  %13 = load ptr, ptr %3, align 8, !tbaa !12
  %14 = getelementptr inbounds nuw %struct.ScanEnv, ptr %13, i32 0, i32 2
  %15 = load ptr, ptr %14, align 8, !tbaa !98
  %16 = getelementptr inbounds nuw %struct.OnigEncodingTypeST, ptr %15, i32 0, i32 11
  %17 = load ptr, ptr %16, align 8, !tbaa !188
  %18 = load ptr, ptr %5, align 8, !tbaa !7
  %19 = load ptr, ptr %6, align 8, !tbaa !7
  %20 = call i32 %17(ptr noundef @OnigEncodingASCII, ptr noundef %18, ptr noundef %19)
  store i32 %20, ptr %7, align 4, !tbaa !13
  %21 = load i32, ptr %7, align 4, !tbaa !13
  %22 = icmp slt i32 %21, 0
  br i1 %22, label %23, label %28

23:                                               ; preds = %2
  %24 = load ptr, ptr %3, align 8, !tbaa !12
  %25 = load i32, ptr %7, align 4, !tbaa !13
  %26 = load ptr, ptr %5, align 8, !tbaa !7
  %27 = load ptr, ptr %6, align 8, !tbaa !7
  call void @onig_scan_env_set_error_string(ptr noundef %24, i32 noundef %25, ptr noundef %26, ptr noundef %27)
  br label %28

28:                                               ; preds = %23, %2
  %29 = load i32, ptr %7, align 4, !tbaa !13
  call void @llvm.lifetime.end.p0(i64 4, ptr %7) #13
  call void @llvm.lifetime.end.p0(i64 8, ptr %6) #13
  call void @llvm.lifetime.end.p0(i64 8, ptr %5) #13
  ret i32 %29
}

; Function Attrs: nounwind sspstrong uwtable
define internal i32 @add_property_to_cc(ptr noundef %0, ptr noundef %1, i32 noundef %2, ptr noundef %3) #0 {
  %5 = alloca i32, align 4
  %6 = alloca ptr, align 8
  %7 = alloca ptr, align 8
  %8 = alloca i32, align 4
  %9 = alloca ptr, align 8
  %10 = alloca i32, align 4
  %11 = alloca i32, align 4
  store ptr %0, ptr %6, align 8, !tbaa !12
  store ptr %1, ptr %7, align 8, !tbaa !7
  store i32 %2, ptr %8, align 4, !tbaa !13
  store ptr %3, ptr %9, align 8, !tbaa !12
  call void @llvm.lifetime.start.p0(i64 4, ptr %10) #13
  %12 = load ptr, ptr %9, align 8, !tbaa !12
  %13 = load ptr, ptr %7, align 8, !tbaa !7
  %14 = call i32 @propname2ctype(ptr noundef %12, ptr noundef %13)
  store i32 %14, ptr %10, align 4, !tbaa !13
  %15 = load i32, ptr %10, align 4, !tbaa !13
  %16 = icmp slt i32 %15, 0
  br i1 %16, label %17, label %19

17:                                               ; preds = %4
  %18 = load i32, ptr %10, align 4, !tbaa !13
  store i32 %18, ptr %5, align 4
  store i32 1, ptr %11, align 4
  br label %25

19:                                               ; preds = %4
  %20 = load ptr, ptr %6, align 8, !tbaa !12
  %21 = load i32, ptr %10, align 4, !tbaa !13
  %22 = load i32, ptr %8, align 4, !tbaa !13
  %23 = load ptr, ptr %9, align 8, !tbaa !12
  %24 = call i32 @add_ctype_to_cc(ptr noundef %20, i32 noundef %21, i32 noundef %22, i32 noundef 0, ptr noundef %23)
  store i32 %24, ptr %5, align 4
  store i32 1, ptr %11, align 4
  br label %25

25:                                               ; preds = %19, %17
  call void @llvm.lifetime.end.p0(i64 4, ptr %10) #13
  %26 = load i32, ptr %5, align 4
  ret i32 %26
}