; Function Attrs: nounwind sspstrong uwtable
define internal fastcc i32 @add_property_to_cc(ptr noundef captures(address) %0, ptr noundef %1, i32 noundef range(i32 0, 2) %2, ptr noundef captures(none) %3) unnamed_addr #5 {
  %5 = tail call i64 @strlen(ptr noundef nonnull dereferenceable(1) %1) #29
  %6 = getelementptr i8, ptr %1, i64 %5
  %7 = getelementptr inbounds nuw i8, ptr %3, i64 8
  %8 = load ptr, ptr %7, align 8, !tbaa !84
  %9 = getelementptr inbounds nuw i8, ptr %8, i64 80
  %10 = load ptr, ptr %9, align 8, !tbaa !127
  %11 = tail call i32 %10(ptr noundef nonnull @OnigEncodingASCII, ptr noundef nonnull %1, ptr noundef %6) #25
  %12 = icmp slt i32 %11, 0
  br i1 %12, label %propname2ctype.exit.thread, label %propname2ctype.exit

propname2ctype.exit.thread:                       ; preds = %4
  %13 = getelementptr inbounds nuw i8, ptr %3, i64 56
  store ptr %1, ptr %13, align 8, !tbaa !94
  %14 = getelementptr inbounds nuw i8, ptr %3, i64 64
  store ptr %6, ptr %14, align 8, !tbaa !95
  br label %16

propname2ctype.exit:                              ; preds = %4
  %15 = tail call fastcc i32 @add_ctype_to_cc(ptr noundef %0, i32 noundef %11, i32 noundef %2, i32 noundef 0, ptr noundef nonnull %3)
  br label %16

16:                                               ; preds = %propname2ctype.exit.thread, %propname2ctype.exit
  %.0 = phi i32 [ %15, %propname2ctype.exit ], [ %11, %propname2ctype.exit.thread ]
  ret i32 %.0
}